target datalayout = "e-m:e-p270:32:32-p271:32:32-p272:64:64-i64:64-i128:128-f80:128-n8:16:32:64-S128"
target triple = "x86_64-pc-linux-gnu"

%struct.OSQPMatrix_ = type { ptr, i32 }

@.str.58 = private unnamed_addr constant [4 x i8] c"};\0A\00", align 1
@.str.167 = private unnamed_addr constant [7 x i8] c"%s_csc\00", align 1
@.str.168 = private unnamed_addr constant [19 x i8] c"OSQPMatrix %s = {\0A\00", align 1
@.str.169 = private unnamed_addr constant [8 x i8] c"  &%s,\0A\00", align 1
@.str.170 = private unnamed_addr constant [6 x i8] c"  %d\0A\00", align 1

; Function Attrs: nounwind uwtable
define internal i64 @write_OSQPMatrix(ptr noundef %0, ptr noundef %1, ptr noundef %2) #0 {
  %4 = alloca i64, align 8
  %5 = alloca ptr, align 8
  %6 = alloca ptr, align 8
  %7 = alloca ptr, align 8
  %8 = alloca i64, align 8
  %9 = alloca [259 x i8], align 16
  store ptr %0, ptr %5, align 8
  store ptr %1, ptr %6, align 8
  store ptr %2, ptr %7, align 8
  store i64 0, ptr %8, align 8
  %10 = load ptr, ptr %6, align 8
  %11 = icmp ne ptr %10, null
  br i1 %11, label %13, label %12

12:                                               ; preds = %3
  store i64 10, ptr %4, align 8
  br label %42

13:                                               ; preds = %3
  %14 = getelementptr inbounds [259 x i8], ptr %9, i64 0, i64 0
  %15 = load ptr, ptr %7, align 8
  %16 = call i32 (ptr, ptr, ...) @sprintf(ptr noundef %14, ptr noundef @.str.167, ptr noundef %15) #4
  %17 = load ptr, ptr %5, align 8
  %18 = load ptr, ptr %6, align 8
  %19 = getelementptr inbounds %struct.OSQPMatrix_, ptr %18, i32 0, i32 0
  %20 = load ptr, ptr %19, align 8
  %21 = getelementptr inbounds [259 x i8], ptr %9, i64 0, i64 0
  %22 = call i64 @write_csc(ptr noundef %17, ptr noundef %20, ptr noundef %21)
  store i64 %22, ptr %8, align 8
  %23 = load i64, ptr %8, align 8
  %24 = icmp ne i64 %23, 0
  br i1 %24, label %25, label %27

25:                                               ; preds = %13
  %26 = load i64, ptr %8, align 8
  store i64 %26, ptr %4, align 8
  br label %42

27:                                               ; preds = %13
  %28 = load ptr, ptr %5, align 8
  %29 = load ptr, ptr %7, align 8
  %30 = call i32 (ptr, ptr, ...) @fprintf(ptr noundef %28, ptr noundef @.str.168, ptr noundef %29) #4
  %31 = load ptr, ptr %5, align 8
  %32 = getelementptr inbounds [259 x i8], ptr %9, i64 0, i64 0
  %33 = call i32 (ptr, ptr, ...) @fprintf(ptr noundef %31, ptr noundef @.str.169, ptr noundef %32) #4
  %34 = load ptr, ptr %5, align 8
  %35 = load ptr, ptr %6, align 8
  %36 = getelementptr inbounds %struct.OSQPMatrix_, ptr %35, i32 0, i32 1
  %37 = load i32, ptr %36, align 8
  %38 = call i32 (ptr, ptr, ...) @fprintf(ptr noundef %34, ptr noundef @.str.170, i32 noundef %37) #4
  %39 = load ptr, ptr %5, align 8
  %40 = call i32 (ptr, ptr, ...) @fprintf(ptr noundef %39, ptr noundef @.str.58) #4
  %41 = load i64, ptr %8, align 8
  store i64 %41, ptr %4, align 8
  br label %42

42:                                               ; preds = %27, %25, %12
  %43 = load i64, ptr %4, align 8
  ret i64 %43
}