; Function Attrs: nofree nounwind uwtable
define internal fastcc noundef i64 @write_OSQPMatrix(ptr nocapture noundef %0, ptr noundef readonly %1, ptr noundef %2) unnamed_addr #5 {
  %4 = alloca [259 x i8], align 16
  %.not = icmp eq ptr %1, null
  br i1 %.not, label %16, label %5

5:                                                ; preds = %3
  %6 = call i32 (ptr, ptr, ...) @sprintf(ptr noundef nonnull dereferenceable(1) %4, ptr noundef nonnull dereferenceable(1) @.str.167, ptr noundef %2) #8
  %7 = load ptr, ptr %1, align 8
  %8 = call fastcc i64 @write_csc(ptr noundef %0, ptr noundef %7, ptr noundef nonnull %4), !range !6
  %.not15 = icmp eq i64 %8, 0
  br i1 %.not15, label %9, label %16

9:                                                ; preds = %5
  %10 = call i32 (ptr, ptr, ...) @fprintf(ptr noundef %0, ptr noundef nonnull @.str.168, ptr noundef %2) #8
  %11 = call i32 (ptr, ptr, ...) @fprintf(ptr noundef %0, ptr noundef nonnull @.str.169, ptr noundef nonnull %4) #8
  %12 = getelementptr inbounds i8, ptr %1, i64 8
  %13 = load i32, ptr %12, align 8
  %14 = call i32 (ptr, ptr, ...) @fprintf(ptr noundef %0, ptr noundef nonnull @.str.170, i32 noundef %13) #8
  %15 = call i64 @fwrite(ptr nonnull @.str.58, i64 3, i64 1, ptr %0)
  br label %16

16:                                               ; preds = %5, %3, %9
  %.0 = phi i64 [ 0, %9 ], [ 10, %3 ], [ %8, %5 ]
  ret i64 %.0
}